; ModuleID = '59/493.c'
source_filename = "59/493.c"
target datalayout = "e-m:e-p270:32:32-p271:32:32-p272:64:64-i64:64-f80:128-n8:16:32:64-S128"
target triple = "x86_64-pc-linux-gnu"

@.str = private unnamed_addr constant [3 x i8] c"%d\00", align 1
@.str.1 = private unnamed_addr constant [3 x i8] c"%c\00", align 1

; Function Attrs: noinline nounwind uwtable
define dso_local i32 @main() #0 {
  %1 = alloca i32, align 4
  %2 = alloca [101 x [101 x i32]], align 16
  %3 = alloca i32, align 4
  %4 = alloca i32, align 4
  %5 = alloca i32, align 4
  %6 = alloca i32, align 4
  %7 = alloca i32, align 4
  %8 = alloca i8, align 1
  %9 = alloca i8, align 1
  store i32 0, i32* %1, align 4
  %10 = call i32 (i8*, ...) @__isoc99_scanf(i8* getelementptr inbounds ([3 x i8], [3 x i8]* @.str, i64 0, i64 0), i32* %6)
  %11 = call i32 (i8*, ...) @__isoc99_scanf(i8* getelementptr inbounds ([3 x i8], [3 x i8]* @.str.1, i64 0, i64 0), i8* %9)
  store i32 1, i32* %3, align 4
  br label %12

12:                                               ; preds = %58, %0
  %13 = load i32, i32* %3, align 4
  %14 = load i32, i32* %6, align 4
  %15 = icmp sle i32 %13, %14
  br i1 %15, label %16, label %61

16:                                               ; preds = %12
  store i32 1, i32* %4, align 4
  br label %17

17:                                               ; preds = %53, %16
  %18 = load i32, i32* %4, align 4
  %19 = load i32, i32* %6, align 4
  %20 = icmp sle i32 %18, %19
  br i1 %20, label %21, label %56

21:                                               ; preds = %17
  %22 = call i32 (i8*, ...) @__isoc99_scanf(i8* getelementptr inbounds ([3 x i8], [3 x i8]* @.str.1, i64 0, i64 0), i8* %8)
  %23 = load i8, i8* %8, align 1
  %24 = sext i8 %23 to i32
  %25 = icmp eq i32 %24, 46
  br i1 %25, label %26, label %33

26:                                               ; preds = %21
  %27 = load i32, i32* %3, align 4
  %28 = sext i32 %27 to i64
  %29 = getelementptr inbounds [101 x [101 x i32]], [101 x [101 x i32]]* %2, i64 0, i64 %28
  %30 = load i32, i32* %4, align 4
  %31 = sext i32 %30 to i64
  %32 = getelementptr inbounds [101 x i32], [101 x i32]* %29, i64 0, i64 %31
  store i32 -1, i32* %32, align 4
  br label %52

33:                                               ; preds = %21
  %34 = load i8, i8* %8, align 1
  %35 = sext i8 %34 to i32
  %36 = icmp eq i32 %35, 64
  br i1 %36, label %37, label %44

37:                                               ; preds = %33
  %38 = load i32, i32* %3, align 4
  %39 = sext i32 %38 to i64
  %40 = getelementptr inbounds [101 x [101 x i32]], [101 x [101 x i32]]* %2, i64 0, i64 %39
  %41 = load i32, i32* %4, align 4
  %42 = sext i32 %41 to i64
  %43 = getelementptr inbounds [101 x i32], [101 x i32]* %40, i64 0, i64 %42
  store i32 0, i32* %43, align 4
  br label %51

44:                                               ; preds = %33
  %45 = load i32, i32* %3, align 4
  %46 = sext i32 %45 to i64
  %47 = getelementptr inbounds [101 x [101 x i32]], [101 x [101 x i32]]* %2, i64 0, i64 %46
  %48 = load i32, i32* %4, align 4
  %49 = sext i32 %48 to i64
  %50 = getelementptr inbounds [101 x i32], [101 x i32]* %47, i64 0, i64 %49
  store i32 -2, i32* %50, align 4
  br label %51

51:                                               ; preds = %44, %37
  br label %52

52:                                               ; preds = %51, %26
  br label %53

53:                                               ; preds = %52
  %54 = load i32, i32* %4, align 4
  %55 = add nsw i32 %54, 1
  store i32 %55, i32* %4, align 4
  br label %17

56:                                               ; preds = %17
  %57 = call i32 (i8*, ...) @__isoc99_scanf(i8* getelementptr inbounds ([3 x i8], [3 x i8]* @.str.1, i64 0, i64 0), i8* %9)
  br label %58

58:                                               ; preds = %56
  %59 = load i32, i32* %3, align 4
  %60 = add nsw i32 %59, 1
  store i32 %60, i32* %3, align 4
  br label %12

61:                                               ; preds = %12
  %62 = call i32 (i8*, ...) @__isoc99_scanf(i8* getelementptr inbounds ([3 x i8], [3 x i8]* @.str, i64 0, i64 0), i32* %7)
  store i32 0, i32* %5, align 4
  br label %63

63:                                               ; preds = %178, %61
  %64 = load i32, i32* %5, align 4
  %65 = load i32, i32* %7, align 4
  %66 = sub nsw i32 %65, 1
  %67 = icmp slt i32 %64, %66
  br i1 %67, label %68, label %181

68:                                               ; preds = %63
  store i32 1, i32* %3, align 4
  br label %69

69:                                               ; preds = %174, %68
  %70 = load i32, i32* %3, align 4
  %71 = load i32, i32* %6, align 4
  %72 = icmp sle i32 %70, %71
  br i1 %72, label %73, label %177

73:                                               ; preds = %69
  store i32 1, i32* %4, align 4
  br label %74

74:                                               ; preds = %170, %73
  %75 = load i32, i32* %4, align 4
  %76 = load i32, i32* %6, align 4
  %77 = icmp sle i32 %75, %76
  br i1 %77, label %78, label %173

78:                                               ; preds = %74
  %79 = load i32, i32* %3, align 4
  %80 = sext i32 %79 to i64
  %81 = getelementptr inbounds [101 x [101 x i32]], [101 x [101 x i32]]* %2, i64 0, i64 %80
  %82 = load i32, i32* %4, align 4
  %83 = sext i32 %82 to i64
  %84 = getelementptr inbounds [101 x i32], [101 x i32]* %81, i64 0, i64 %83
  %85 = load i32, i32* %84, align 4
  %86 = load i32, i32* %5, align 4
  %87 = icmp eq i32 %85, %86
  br i1 %87, label %88, label %169

88:                                               ; preds = %78
  %89 = load i32, i32* %3, align 4
  %90 = sub nsw i32 %89, 1
  %91 = sext i32 %90 to i64
  %92 = getelementptr inbounds [101 x [101 x i32]], [101 x [101 x i32]]* %2, i64 0, i64 %91
  %93 = load i32, i32* %4, align 4
  %94 = sext i32 %93 to i64
  %95 = getelementptr inbounds [101 x i32], [101 x i32]* %92, i64 0, i64 %94
  %96 = load i32, i32* %95, align 4
  %97 = icmp eq i32 %96, -1
  br i1 %97, label %98, label %108

98:                                               ; preds = %88
  %99 = load i32, i32* %5, align 4
  %100 = add nsw i32 %99, 1
  %101 = load i32, i32* %3, align 4
  %102 = sub nsw i32 %101, 1
  %103 = sext i32 %102 to i64
  %104 = getelementptr inbounds [101 x [101 x i32]], [101 x [101 x i32]]* %2, i64 0, i64 %103
  %105 = load i32, i32* %4, align 4
  %106 = sext i32 %105 to i64
  %107 = getelementptr inbounds [101 x i32], [101 x i32]* %104, i64 0, i64 %106
  store i32 %100, i32* %107, align 4
  br label %108

108:                                              ; preds = %98, %88
  %109 = load i32, i32* %3, align 4
  %110 = add nsw i32 %109, 1
  %111 = sext i32 %110 to i64
  %112 = getelementptr inbounds [101 x [101 x i32]], [101 x [101 x i32]]* %2, i64 0, i64 %111
  %113 = load i32, i32* %4, align 4
  %114 = sext i32 %113 to i64
  %115 = getelementptr inbounds [101 x i32], [101 x i32]* %112, i64 0, i64 %114
  %116 = load i32, i32* %115, align 4
  %117 = icmp eq i32 %116, -1
  br i1 %117, label %118, label %128

118:                                              ; preds = %108
  %119 = load i32, i32* %5, align 4
  %120 = add nsw i32 %119, 1
  %121 = load i32, i32* %3, align 4
  %122 = add nsw i32 %121, 1
  %123 = sext i32 %122 to i64
  %124 = getelementptr inbounds [101 x [101 x i32]], [101 x [101 x i32]]* %2, i64 0, i64 %123
  %125 = load i32, i32* %4, align 4
  %126 = sext i32 %125 to i64
  %127 = getelementptr inbounds [101 x i32], [101 x i32]* %124, i64 0, i64 %126
  store i32 %120, i32* %127, align 4
  br label %128

128:                                              ; preds = %118, %108
  %129 = load i32, i32* %3, align 4
  %130 = sext i32 %129 to i64
  %131 = getelementptr inbounds [101 x [101 x i32]], [101 x [101 x i32]]* %2, i64 0, i64 %130
  %132 = load i32, i32* %4, align 4
  %133 = add nsw i32 %132, 1
  %134 = sext i32 %133 to i64
  %135 = getelementptr inbounds [101 x i32], [101 x i32]* %131, i64 0, i64 %134
  %136 = load i32, i32* %135, align 4
  %137 = icmp eq i32 %136, -1
  br i1 %137, label %138, label %148

138:                                              ; preds = %128
  %139 = load i32, i32* %5, align 4
  %140 = add nsw i32 %139, 1
  %141 = load i32, i32* %3, align 4
  %142 = sext i32 %141 to i64
  %143 = getelementptr inbounds [101 x [101 x i32]], [101 x [101 x i32]]* %2, i64 0, i64 %142
  %144 = load i32, i32* %4, align 4
  %145 = add nsw i32 %144, 1
  %146 = sext i32 %145 to i64
  %147 = getelementptr inbounds [101 x i32], [101 x i32]* %143, i64 0, i64 %146
  store i32 %140, i32* %147, align 4
  br label %148

148:                                              ; preds = %138, %128
  %149 = load i32, i32* %3, align 4
  %150 = sext i32 %149 to i64
  %151 = getelementptr inbounds [101 x [101 x i32]], [101 x [101 x i32]]* %2, i64 0, i64 %150
  %152 = load i32, i32* %4, align 4
  %153 = sub nsw i32 %152, 1
  %154 = sext i32 %153 to i64
  %155 = getelementptr inbounds [101 x i32], [101 x i32]* %151, i64 0, i64 %154
  %156 = load i32, i32* %155, align 4
  %157 = icmp eq i32 %156, -1
  br i1 %157, label %158, label %168

158:                                              ; preds = %148
  %159 = load i32, i32* %5, align 4
  %160 = add nsw i32 %159, 1
  %161 = load i32, i32* %3, align 4
  %162 = sext i32 %161 to i64
  %163 = getelementptr inbounds [101 x [101 x i32]], [101 x [101 x i32]]* %2, i64 0, i64 %162
  %164 = load i32, i32* %4, align 4
  %165 = sub nsw i32 %164, 1
  %166 = sext i32 %165 to i64
  %167 = getelementptr inbounds [101 x i32], [101 x i32]* %163, i64 0, i64 %166
  store i32 %160, i32* %167, align 4
  br label %168

168:                                              ; preds = %158, %148
  br label %169

169:                                              ; preds = %168, %78
  br label %170

170:                                              ; preds = %169
  %171 = load i32, i32* %4, align 4
  %172 = add nsw i32 %171, 1
  store i32 %172, i32* %4, align 4
  br label %74

173:                                              ; preds = %74
  br label %174

174:                                              ; preds = %173
  %175 = load i32, i32* %3, align 4
  %176 = add nsw i32 %175, 1
  store i32 %176, i32* %3, align 4
  br label %69

177:                                              ; preds = %69
  br label %178

178:                                              ; preds = %177
  %179 = load i32, i32* %5, align 4
  %180 = add nsw i32 %179, 1
  store i32 %180, i32* %5, align 4
  br label %63

181:                                              ; preds = %63
  store i32 0, i32* %5, align 4
  store i32 1, i32* %3, align 4
  br label %182

182:                                              ; preds = %208, %181
  %183 = load i32, i32* %3, align 4
  %184 = load i32, i32* %6, align 4
  %185 = icmp sle i32 %183, %184
  br i1 %185, label %186, label %211

186:                                              ; preds = %182
  store i32 1, i32* %4, align 4
  br label %187

187:                                              ; preds = %204, %186
  %188 = load i32, i32* %4, align 4
  %189 = load i32, i32* %6, align 4
  %190 = icmp sle i32 %188, %189
  br i1 %190, label %191, label %207

191:                                              ; preds = %187
  %192 = load i32, i32* %3, align 4
  %193 = sext i32 %192 to i64
  %194 = getelementptr inbounds [101 x [101 x i32]], [101 x [101 x i32]]* %2, i64 0, i64 %193
  %195 = load i32, i32* %4, align 4
  %196 = sext i32 %195 to i64
  %197 = getelementptr inbounds [101 x i32], [101 x i32]* %194, i64 0, i64 %196
  %198 = load i32, i32* %197, align 4
  %199 = icmp sge i32 %198, 0
  br i1 %199, label %200, label %203

200:                                              ; preds = %191
  %201 = load i32, i32* %5, align 4
  %202 = add nsw i32 %201, 1
  store i32 %202, i32* %5, align 4
  br label %203

203:                                              ; preds = %200, %191
  br label %204

204:                                              ; preds = %203
  %205 = load i32, i32* %4, align 4
  %206 = add nsw i32 %205, 1
  store i32 %206, i32* %4, align 4
  br label %187

207:                                              ; preds = %187
  br label %208

208:                                              ; preds = %207
  %209 = load i32, i32* %3, align 4
  %210 = add nsw i32 %209, 1
  store i32 %210, i32* %3, align 4
  br label %182

211:                                              ; preds = %182
  %212 = load i32, i32* %5, align 4
  %213 = call i32 (i8*, ...) @printf(i8* getelementptr inbounds ([3 x i8], [3 x i8]* @.str, i64 0, i64 0), i32 %212)
  ret i32 0
}

declare dso_local i32 @__isoc99_scanf(i8*, ...) #1

declare dso_local i32 @printf(i8*, ...) #1


!llvm.module.flags = !{!0}
!llvm.ident = !{!1}

!0 = !{i32 1, !"wchar_size", i32 4}
!1 = !{!"clang version 10.0.0-4ubuntu1 "}
